target datalayout = "e-m:e-p270:32:32-p271:32:32-p272:64:64-i64:64-i128:128-f80:128-n8:16:32:64-S128"
target triple = "x86_64-pc-linux-gnu"

%struct.AVFilterContext = type { ptr, ptr, ptr, ptr, ptr, i32, ptr, ptr, i32, ptr, ptr, i32, i32, ptr, ptr, ptr, ptr, i32, ptr, i32, i32 }
%struct.GrayWorldContext = type { ptr, ptr, ptr }
%struct.ThreadData = type { ptr, ptr, float, float, float }
%struct.AVFilterLink = type { ptr, ptr, ptr, ptr, i32, i32, i32, i32, %struct.AVRational, i32, i32, i32, %struct.AVChannelLayout, %struct.AVRational, ptr, i32, %struct.AVFilterFormatsConfig, %struct.AVFilterFormatsConfig }
%struct.AVChannelLayout = type { i32, i32, %union.anon.1, ptr }
%union.anon.1 = type { i64 }
%struct.AVRational = type { i32, i32 }
%struct.AVFilterFormatsConfig = type { ptr, ptr, ptr, ptr, ptr }
%struct.AVFrame = type { [8 x ptr], [8 x i32], ptr, i32, i32, i32, i32, i32, %struct.AVRational, i64, i64, %struct.AVRational, i32, ptr, i32, i32, [8 x ptr], ptr, i32, ptr, i32, i32, i32, i32, i32, i32, i32, i64, ptr, i32, ptr, ptr, i64, i64, i64, i64, ptr, %struct.AVChannelLayout, i64 }

; Function Attrs: nounwind uwtable
define internal void @apply_matrix(ptr noundef %0, ptr noundef %1, ptr noundef %2) #1 {
  %4 = alloca ptr, align 8
  %5 = alloca ptr, align 8
  %6 = alloca ptr, align 8
  store ptr %0, ptr %4, align 8, !tbaa !61
  store ptr %1, ptr %5, align 8, !tbaa !61
  store ptr %2, ptr %6, align 8, !tbaa !61
  %7 = load ptr, ptr %4, align 8, !tbaa !61
  %8 = getelementptr inbounds [3 x float], ptr %7, i64 0
  %9 = getelementptr inbounds [3 x float], ptr %8, i64 0, i64 0
  %10 = load float, ptr %9, align 4, !tbaa !62
  %11 = load ptr, ptr %5, align 8, !tbaa !61
  %12 = getelementptr inbounds float, ptr %11, i64 0
  %13 = load float, ptr %12, align 4, !tbaa !62
  %14 = load ptr, ptr %4, align 8, !tbaa !61
  %15 = getelementptr inbounds [3 x float], ptr %14, i64 0
  %16 = getelementptr inbounds [3 x float], ptr %15, i64 0, i64 1
  %17 = load float, ptr %16, align 4, !tbaa !62
  %18 = load ptr, ptr %5, align 8, !tbaa !61
  %19 = getelementptr inbounds float, ptr %18, i64 1
  %20 = load float, ptr %19, align 4, !tbaa !62
  %21 = fmul nsz float %17, %20
  %22 = call nsz float @llvm.fmuladd.f32(float %10, float %13, float %21)
  %23 = load ptr, ptr %4, align 8, !tbaa !61
  %24 = getelementptr inbounds [3 x float], ptr %23, i64 0
  %25 = getelementptr inbounds [3 x float], ptr %24, i64 0, i64 2
  %26 = load float, ptr %25, align 4, !tbaa !62
  %27 = load ptr, ptr %5, align 8, !tbaa !61
  %28 = getelementptr inbounds float, ptr %27, i64 2
  %29 = load float, ptr %28, align 4, !tbaa !62
  %30 = call nsz float @llvm.fmuladd.f32(float %26, float %29, float %22)
  %31 = load ptr, ptr %6, align 8, !tbaa !61
  %32 = getelementptr inbounds float, ptr %31, i64 0
  store float %30, ptr %32, align 4, !tbaa !62
  %33 = load ptr, ptr %4, align 8, !tbaa !61
  %34 = getelementptr inbounds [3 x float], ptr %33, i64 1
  %35 = getelementptr inbounds [3 x float], ptr %34, i64 0, i64 0
  %36 = load float, ptr %35, align 4, !tbaa !62
  %37 = load ptr, ptr %5, align 8, !tbaa !61
  %38 = getelementptr inbounds float, ptr %37, i64 0
  %39 = load float, ptr %38, align 4, !tbaa !62
  %40 = load ptr, ptr %4, align 8, !tbaa !61
  %41 = getelementptr inbounds [3 x float], ptr %40, i64 1
  %42 = getelementptr inbounds [3 x float], ptr %41, i64 0, i64 1
  %43 = load float, ptr %42, align 4, !tbaa !62
  %44 = load ptr, ptr %5, align 8, !tbaa !61
  %45 = getelementptr inbounds float, ptr %44, i64 1
  %46 = load float, ptr %45, align 4, !tbaa !62
  %47 = fmul nsz float %43, %46
  %48 = call nsz float @llvm.fmuladd.f32(float %36, float %39, float %47)
  %49 = load ptr, ptr %4, align 8, !tbaa !61
  %50 = getelementptr inbounds [3 x float], ptr %49, i64 1
  %51 = getelementptr inbounds [3 x float], ptr %50, i64 0, i64 2
  %52 = load float, ptr %51, align 4, !tbaa !62
  %53 = load ptr, ptr %5, align 8, !tbaa !61
  %54 = getelementptr inbounds float, ptr %53, i64 2
  %55 = load float, ptr %54, align 4, !tbaa !62
  %56 = call nsz float @llvm.fmuladd.f32(float %52, float %55, float %48)
  %57 = load ptr, ptr %6, align 8, !tbaa !61
  %58 = getelementptr inbounds float, ptr %57, i64 1
  store float %56, ptr %58, align 4, !tbaa !62
  %59 = load ptr, ptr %4, align 8, !tbaa !61
  %60 = getelementptr inbounds [3 x float], ptr %59, i64 2
  %61 = getelementptr inbounds [3 x float], ptr %60, i64 0, i64 0
  %62 = load float, ptr %61, align 4, !tbaa !62
  %63 = load ptr, ptr %5, align 8, !tbaa !61
  %64 = getelementptr inbounds float, ptr %63, i64 0
  %65 = load float, ptr %64, align 4, !tbaa !62
  %66 = load ptr, ptr %4, align 8, !tbaa !61
  %67 = getelementptr inbounds [3 x float], ptr %66, i64 2
  %68 = getelementptr inbounds [3 x float], ptr %67, i64 0, i64 1
  %69 = load float, ptr %68, align 4, !tbaa !62
  %70 = load ptr, ptr %5, align 8, !tbaa !61
  %71 = getelementptr inbounds float, ptr %70, i64 1
  %72 = load float, ptr %71, align 4, !tbaa !62
  %73 = fmul nsz float %69, %72
  %74 = call nsz float @llvm.fmuladd.f32(float %62, float %65, float %73)
  %75 = load ptr, ptr %4, align 8, !tbaa !61
  %76 = getelementptr inbounds [3 x float], ptr %75, i64 2
  %77 = getelementptr inbounds [3 x float], ptr %76, i64 0, i64 2
  %78 = load float, ptr %77, align 4, !tbaa !62
  %79 = load ptr, ptr %5, align 8, !tbaa !61
  %80 = getelementptr inbounds float, ptr %79, i64 2
  %81 = load float, ptr %80, align 4, !tbaa !62
  %82 = call nsz float @llvm.fmuladd.f32(float %78, float %81, float %74)
  %83 = load ptr, ptr %6, align 8, !tbaa !61
  %84 = getelementptr inbounds float, ptr %83, i64 2
  store float %82, ptr %84, align 4, !tbaa !62
  ret void
}

; Function Attrs: nounwind uwtable
define internal void @lab2rgb(ptr noundef %0, ptr noundef %1) #1 {
  %3 = alloca ptr, align 8
  %4 = alloca ptr, align 8
  %5 = alloca [3 x float], align 4
  store ptr %0, ptr %3, align 8, !tbaa !61
  store ptr %1, ptr %4, align 8, !tbaa !61
  call void @llvm.lifetime.start.p0(i64 12, ptr %5) #6
  %6 = load ptr, ptr %3, align 8, !tbaa !61
  %7 = getelementptr inbounds [3 x float], ptr %5, i64 0, i64 0
  call void @apply_matrix(ptr noundef @lab2lms, ptr noundef %6, ptr noundef %7)
  %8 = getelementptr inbounds [3 x float], ptr %5, i64 0, i64 0
  %9 = load float, ptr %8, align 4, !tbaa !62
  %10 = call nsz float @llvm.exp.f32(float %9)
  %11 = getelementptr inbounds [3 x float], ptr %5, i64 0, i64 0
  store float %10, ptr %11, align 4, !tbaa !62
  %12 = getelementptr inbounds [3 x float], ptr %5, i64 0, i64 1
  %13 = load float, ptr %12, align 4, !tbaa !62
  %14 = call nsz float @llvm.exp.f32(float %13)
  %15 = getelementptr inbounds [3 x float], ptr %5, i64 0, i64 1
  store float %14, ptr %15, align 4, !tbaa !62
  %16 = getelementptr inbounds [3 x float], ptr %5, i64 0, i64 2
  %17 = load float, ptr %16, align 4, !tbaa !62
  %18 = call nsz float @llvm.exp.f32(float %17)
  %19 = getelementptr inbounds [3 x float], ptr %5, i64 0, i64 2
  store float %18, ptr %19, align 4, !tbaa !62
  %20 = getelementptr inbounds [3 x float], ptr %5, i64 0, i64 0
  %21 = load ptr, ptr %4, align 8, !tbaa !61
  call void @apply_matrix(ptr noundef @lms2rgb, ptr noundef %20, ptr noundef %21)
  call void @llvm.lifetime.end.p0(i64 12, ptr %5) #6
  ret void
}

; Function Attrs: nounwind uwtable
define internal i32 @correct_frame(ptr noundef %0, ptr noundef %1, i32 noundef %2, i32 noundef %3) #1 {
  %5 = alloca ptr, align 8
  %6 = alloca ptr, align 8
  %7 = alloca i32, align 4
  %8 = alloca i32, align 4
  %9 = alloca ptr, align 8
  %10 = alloca ptr, align 8
  %11 = alloca ptr, align 8
  %12 = alloca ptr, align 8
  %13 = alloca i32, align 4
  %14 = alloca i32, align 4
  %15 = alloca [3 x float], align 4
  %16 = alloca [3 x float], align 4
  %17 = alloca i32, align 4
  %18 = alloca i32, align 4
  %19 = alloca ptr, align 8
  %20 = alloca ptr, align 8
  %21 = alloca ptr, align 8
  %22 = alloca ptr, align 8
  %23 = alloca ptr, align 8
  %24 = alloca ptr, align 8
  %25 = alloca i32, align 4
  store ptr %0, ptr %5, align 8, !tbaa !4
  store ptr %1, ptr %6, align 8, !tbaa !57
  store i32 %2, ptr %7, align 4, !tbaa !50
  store i32 %3, ptr %8, align 4, !tbaa !50
  call void @llvm.lifetime.start.p0(i64 8, ptr %9) #6
  %26 = load ptr, ptr %5, align 8, !tbaa !4
  %27 = getelementptr inbounds nuw %struct.AVFilterContext, ptr %26, i32 0, i32 9
  %28 = load ptr, ptr %27, align 8, !tbaa !9
  store ptr %28, ptr %9, align 8, !tbaa !22
  call void @llvm.lifetime.start.p0(i64 8, ptr %10) #6
  %29 = load ptr, ptr %6, align 8, !tbaa !57
  store ptr %29, ptr %10, align 8, !tbaa !58
  call void @llvm.lifetime.start.p0(i64 8, ptr %11) #6
  %30 = load ptr, ptr %10, align 8, !tbaa !58
  %31 = getelementptr inbounds nuw %struct.ThreadData, ptr %30, i32 0, i32 1
  %32 = load ptr, ptr %31, align 8, !tbaa !48
  store ptr %32, ptr %11, align 8, !tbaa !26
  call void @llvm.lifetime.start.p0(i64 8, ptr %12) #6
  %33 = load ptr, ptr %5, align 8, !tbaa !4
  %34 = getelementptr inbounds nuw %struct.AVFilterContext, ptr %33, i32 0, i32 7
  %35 = load ptr, ptr %34, align 8, !tbaa !36
  %36 = getelementptr inbounds ptr, ptr %35, i64 0
  %37 = load ptr, ptr %36, align 8, !tbaa !24
  store ptr %37, ptr %12, align 8, !tbaa !24
  call void @llvm.lifetime.start.p0(i64 4, ptr %13) #6
  %38 = load ptr, ptr %11, align 8, !tbaa !26
  %39 = getelementptr inbounds nuw %struct.AVFrame, ptr %38, i32 0, i32 4
  %40 = load i32, ptr %39, align 4, !tbaa !60
  %41 = load i32, ptr %7, align 4, !tbaa !50
  %42 = mul nsw i32 %40, %41
  %43 = load i32, ptr %8, align 4, !tbaa !50
  %44 = sdiv i32 %42, %43
  store i32 %44, ptr %13, align 4, !tbaa !50
  call void @llvm.lifetime.start.p0(i64 4, ptr %14) #6
  %45 = load ptr, ptr %11, align 8, !tbaa !26
  %46 = getelementptr inbounds nuw %struct.AVFrame, ptr %45, i32 0, i32 4
  %47 = load i32, ptr %46, align 4, !tbaa !60
  %48 = load i32, ptr %7, align 4, !tbaa !50
  %49 = add nsw i32 %48, 1
  %50 = mul nsw i32 %47, %49
  %51 = load i32, ptr %8, align 4, !tbaa !50
  %52 = sdiv i32 %50, %51
  store i32 %52, ptr %14, align 4, !tbaa !50
  call void @llvm.lifetime.start.p0(i64 12, ptr %15) #6
  call void @llvm.lifetime.start.p0(i64 12, ptr %16) #6
  call void @llvm.lifetime.start.p0(i64 4, ptr %17) #6
  %53 = load i32, ptr %13, align 4, !tbaa !50
  store i32 %53, ptr %17, align 4, !tbaa !50
  br label %54

54:                                               ; preds = %201, %4
  %55 = load i32, ptr %17, align 4, !tbaa !50
  %56 = load i32, ptr %14, align 4, !tbaa !50
  %57 = icmp slt i32 %55, %56
  br i1 %57, label %59, label %58

58:                                               ; preds = %54
  store i32 2, ptr %18, align 4
  call void @llvm.lifetime.end.p0(i64 4, ptr %17) #6
  br label %204

59:                                               ; preds = %54
  call void @llvm.lifetime.start.p0(i64 8, ptr %19) #6
  %60 = load ptr, ptr %11, align 8, !tbaa !26
  %61 = getelementptr inbounds nuw %struct.AVFrame, ptr %60, i32 0, i32 0
  %62 = getelementptr inbounds [8 x ptr], ptr %61, i64 0, i64 0
  %63 = load ptr, ptr %62, align 8, !tbaa !49
  %64 = load i32, ptr %17, align 4, !tbaa !50
  %65 = load ptr, ptr %11, align 8, !tbaa !26
  %66 = getelementptr inbounds nuw %struct.AVFrame, ptr %65, i32 0, i32 1
  %67 = getelementptr inbounds [8 x i32], ptr %66, i64 0, i64 0
  %68 = load i32, ptr %67, align 8, !tbaa !50
  %69 = mul nsw i32 %64, %68
  %70 = sext i32 %69 to i64
  %71 = getelementptr inbounds i8, ptr %63, i64 %70
  store ptr %71, ptr %19, align 8, !tbaa !61
  call void @llvm.lifetime.start.p0(i64 8, ptr %20) #6
  %72 = load ptr, ptr %11, align 8, !tbaa !26
  %73 = getelementptr inbounds nuw %struct.AVFrame, ptr %72, i32 0, i32 0
  %74 = getelementptr inbounds [8 x ptr], ptr %73, i64 0, i64 1
  %75 = load ptr, ptr %74, align 8, !tbaa !49
  %76 = load i32, ptr %17, align 4, !tbaa !50
  %77 = load ptr, ptr %11, align 8, !tbaa !26
  %78 = getelementptr inbounds nuw %struct.AVFrame, ptr %77, i32 0, i32 1
  %79 = getelementptr inbounds [8 x i32], ptr %78, i64 0, i64 1
  %80 = load i32, ptr %79, align 4, !tbaa !50
  %81 = mul nsw i32 %76, %80
  %82 = sext i32 %81 to i64
  %83 = getelementptr inbounds i8, ptr %75, i64 %82
  store ptr %83, ptr %20, align 8, !tbaa !61
  call void @llvm.lifetime.start.p0(i64 8, ptr %21) #6
  %84 = load ptr, ptr %11, align 8, !tbaa !26
  %85 = getelementptr inbounds nuw %struct.AVFrame, ptr %84, i32 0, i32 0
  %86 = getelementptr inbounds [8 x ptr], ptr %85, i64 0, i64 2
  %87 = load ptr, ptr %86, align 8, !tbaa !49
  %88 = load i32, ptr %17, align 4, !tbaa !50
  %89 = load ptr, ptr %11, align 8, !tbaa !26
  %90 = getelementptr inbounds nuw %struct.AVFrame, ptr %89, i32 0, i32 1
  %91 = getelementptr inbounds [8 x i32], ptr %90, i64 0, i64 2
  %92 = load i32, ptr %91, align 8, !tbaa !50
  %93 = mul nsw i32 %88, %92
  %94 = sext i32 %93 to i64
  %95 = getelementptr inbounds i8, ptr %87, i64 %94
  store ptr %95, ptr %21, align 8, !tbaa !61
  call void @llvm.lifetime.start.p0(i64 8, ptr %22) #6
  %96 = load ptr, ptr %9, align 8, !tbaa !22
  %97 = getelementptr inbounds nuw %struct.GrayWorldContext, ptr %96, i32 0, i32 0
  %98 = load ptr, ptr %97, align 8, !tbaa !51
  %99 = load i32, ptr %17, align 4, !tbaa !50
  %100 = load ptr, ptr %12, align 8, !tbaa !24
  %101 = getelementptr inbounds nuw %struct.AVFilterLink, ptr %100, i32 0, i32 6
  %102 = load i32, ptr %101, align 8, !tbaa !37
  %103 = mul nsw i32 %99, %102
  %104 = sext i32 %103 to i64
  %105 = getelementptr inbounds float, ptr %98, i64 %104
  store ptr %105, ptr %22, align 8, !tbaa !61
  call void @llvm.lifetime.start.p0(i64 8, ptr %23) #6
  %106 = load ptr, ptr %9, align 8, !tbaa !22
  %107 = getelementptr inbounds nuw %struct.GrayWorldContext, ptr %106, i32 0, i32 0
  %108 = load ptr, ptr %107, align 8, !tbaa !51
  %109 = load i32, ptr %17, align 4, !tbaa !50
  %110 = load ptr, ptr %12, align 8, !tbaa !24
  %111 = getelementptr inbounds nuw %struct.AVFilterLink, ptr %110, i32 0, i32 6
  %112 = load i32, ptr %111, align 8, !tbaa !37
  %113 = mul nsw i32 %109, %112
  %114 = sext i32 %113 to i64
  %115 = getelementptr inbounds float, ptr %108, i64 %114
  %116 = load ptr, ptr %12, align 8, !tbaa !24
  %117 = getelementptr inbounds nuw %struct.AVFilterLink, ptr %116, i32 0, i32 6
  %118 = load i32, ptr %117, align 8, !tbaa !37
  %119 = load ptr, ptr %12, align 8, !tbaa !24
  %120 = getelementptr inbounds nuw %struct.AVFilterLink, ptr %119, i32 0, i32 7
  %121 = load i32, ptr %120, align 4, !tbaa !38
  %122 = mul nsw i32 %118, %121
  %123 = sext i32 %122 to i64
  %124 = getelementptr inbounds float, ptr %115, i64 %123
  store ptr %124, ptr %23, align 8, !tbaa !61
  call void @llvm.lifetime.start.p0(i64 8, ptr %24) #6
  %125 = load ptr, ptr %9, align 8, !tbaa !22
  %126 = getelementptr inbounds nuw %struct.GrayWorldContext, ptr %125, i32 0, i32 0
  %127 = load ptr, ptr %126, align 8, !tbaa !51
  %128 = load i32, ptr %17, align 4, !tbaa !50
  %129 = load ptr, ptr %12, align 8, !tbaa !24
  %130 = getelementptr inbounds nuw %struct.AVFilterLink, ptr %129, i32 0, i32 6
  %131 = load i32, ptr %130, align 8, !tbaa !37
  %132 = mul nsw i32 %128, %131
  %133 = sext i32 %132 to i64
  %134 = getelementptr inbounds float, ptr %127, i64 %133
  %135 = load ptr, ptr %12, align 8, !tbaa !24
  %136 = getelementptr inbounds nuw %struct.AVFilterLink, ptr %135, i32 0, i32 6
  %137 = load i32, ptr %136, align 8, !tbaa !37
  %138 = mul nsw i32 2, %137
  %139 = load ptr, ptr %12, align 8, !tbaa !24
  %140 = getelementptr inbounds nuw %struct.AVFilterLink, ptr %139, i32 0, i32 7
  %141 = load i32, ptr %140, align 4, !tbaa !38
  %142 = mul nsw i32 %138, %141
  %143 = sext i32 %142 to i64
  %144 = getelementptr inbounds float, ptr %134, i64 %143
  store ptr %144, ptr %24, align 8, !tbaa !61
  call void @llvm.lifetime.start.p0(i64 4, ptr %25) #6
  store i32 0, ptr %25, align 4, !tbaa !50
  br label %145

145:                                              ; preds = %197, %59
  %146 = load i32, ptr %25, align 4, !tbaa !50
  %147 = load ptr, ptr %12, align 8, !tbaa !24
  %148 = getelementptr inbounds nuw %struct.AVFilterLink, ptr %147, i32 0, i32 6
  %149 = load i32, ptr %148, align 8, !tbaa !37
  %150 = icmp slt i32 %146, %149
  br i1 %150, label %152, label %151

151:                                              ; preds = %145
  store i32 5, ptr %18, align 4
  call void @llvm.lifetime.end.p0(i64 4, ptr %25) #6
  br label %200

152:                                              ; preds = %145
  %153 = load ptr, ptr %22, align 8, !tbaa !61
  %154 = getelementptr inbounds nuw float, ptr %153, i32 1
  store ptr %154, ptr %22, align 8, !tbaa !61
  %155 = load float, ptr %153, align 4, !tbaa !62
  %156 = getelementptr inbounds [3 x float], ptr %16, i64 0, i64 0
  store float %155, ptr %156, align 4, !tbaa !62
  %157 = load ptr, ptr %23, align 8, !tbaa !61
  %158 = getelementptr inbounds nuw float, ptr %157, i32 1
  store ptr %158, ptr %23, align 8, !tbaa !61
  %159 = load float, ptr %157, align 4, !tbaa !62
  %160 = getelementptr inbounds [3 x float], ptr %16, i64 0, i64 1
  store float %159, ptr %160, align 4, !tbaa !62
  %161 = load ptr, ptr %24, align 8, !tbaa !61
  %162 = getelementptr inbounds nuw float, ptr %161, i32 1
  store ptr %162, ptr %24, align 8, !tbaa !61
  %163 = load float, ptr %161, align 4, !tbaa !62
  %164 = getelementptr inbounds [3 x float], ptr %16, i64 0, i64 2
  store float %163, ptr %164, align 4, !tbaa !62
  %165 = load ptr, ptr %10, align 8, !tbaa !58
  %166 = getelementptr inbounds nuw %struct.ThreadData, ptr %165, i32 0, i32 3
  %167 = load float, ptr %166, align 4, !tbaa !67
  %168 = getelementptr inbounds [3 x float], ptr %16, i64 0, i64 1
  %169 = load float, ptr %168, align 4, !tbaa !62
  %170 = fsub nsz float %169, %167
  store float %170, ptr %168, align 4, !tbaa !62
  %171 = load ptr, ptr %10, align 8, !tbaa !58
  %172 = getelementptr inbounds nuw %struct.ThreadData, ptr %171, i32 0, i32 4
  %173 = load float, ptr %172, align 8, !tbaa !68
  %174 = getelementptr inbounds [3 x float], ptr %16, i64 0, i64 2
  %175 = load float, ptr %174, align 4, !tbaa !62
  %176 = fsub nsz float %175, %173
  store float %176, ptr %174, align 4, !tbaa !62
  %177 = getelementptr inbounds [3 x float], ptr %16, i64 0, i64 0
  %178 = getelementptr inbounds [3 x float], ptr %15, i64 0, i64 0
  call void @lab2rgb(ptr noundef %177, ptr noundef %178)
  %179 = getelementptr inbounds [3 x float], ptr %15, i64 0, i64 0
  %180 = load float, ptr %179, align 4, !tbaa !62
  %181 = load ptr, ptr %21, align 8, !tbaa !61
  %182 = load i32, ptr %25, align 4, !tbaa !50
  %183 = sext i32 %182 to i64
  %184 = getelementptr inbounds float, ptr %181, i64 %183
  store float %180, ptr %184, align 4, !tbaa !62
  %185 = getelementptr inbounds [3 x float], ptr %15, i64 0, i64 1
  %186 = load float, ptr %185, align 4, !tbaa !62
  %187 = load ptr, ptr %19, align 8, !tbaa !61
  %188 = load i32, ptr %25, align 4, !tbaa !50
  %189 = sext i32 %188 to i64
  %190 = getelementptr inbounds float, ptr %187, i64 %189
  store float %186, ptr %190, align 4, !tbaa !62
  %191 = getelementptr inbounds [3 x float], ptr %15, i64 0, i64 2
  %192 = load float, ptr %191, align 4, !tbaa !62
  %193 = load ptr, ptr %20, align 8, !tbaa !61
  %194 = load i32, ptr %25, align 4, !tbaa !50
  %195 = sext i32 %194 to i64
  %196 = getelementptr inbounds float, ptr %193, i64 %195
  store float %192, ptr %196, align 4, !tbaa !62
  br label %197

197:                                              ; preds = %152
  %198 = load i32, ptr %25, align 4, !tbaa !50
  %199 = add nsw i32 %198, 1
  store i32 %199, ptr %25, align 4, !tbaa !50
  br label %145, !llvm.loop !69

200:                                              ; preds = %151
  call void @llvm.lifetime.end.p0(i64 8, ptr %24) #6
  call void @llvm.lifetime.end.p0(i64 8, ptr %23) #6
  call void @llvm.lifetime.end.p0(i64 8, ptr %22) #6
  call void @llvm.lifetime.end.p0(i64 8, ptr %21) #6
  call void @llvm.lifetime.end.p0(i64 8, ptr %20) #6
  call void @llvm.lifetime.end.p0(i64 8, ptr %19) #6
  br label %201

201:                                              ; preds = %200
  %202 = load i32, ptr %17, align 4, !tbaa !50
  %203 = add nsw i32 %202, 1
  store i32 %203, ptr %17, align 4, !tbaa !50
  br label %54, !llvm.loop !70

204:                                              ; preds = %58
  store i32 1, ptr %18, align 4
  call void @llvm.lifetime.end.p0(i64 12, ptr %16) #6
  call void @llvm.lifetime.end.p0(i64 12, ptr %15) #6
  call void @llvm.lifetime.end.p0(i64 4, ptr %14) #6
  call void @llvm.lifetime.end.p0(i64 4, ptr %13) #6
  call void @llvm.lifetime.end.p0(i64 8, ptr %12) #6
  call void @llvm.lifetime.end.p0(i64 8, ptr %11) #6
  call void @llvm.lifetime.end.p0(i64 8, ptr %10) #6
  call void @llvm.lifetime.end.p0(i64 8, ptr %9) #6
  ret i32 0
}