; Function Attrs: nofree norecurse nosync nounwind memory(readwrite, inaccessiblemem: none) uwtable
define internal noundef i32 @correct_frame(ptr noundef readonly captures(none) %0, ptr noundef readonly captures(none) %1, i32 noundef %2, i32 noundef %3) #4 {
  %5 = getelementptr inbounds nuw i8, ptr %1, i64 8
  %6 = load ptr, ptr %5, align 8, !tbaa !45
  %7 = getelementptr inbounds nuw i8, ptr %6, i64 108
  %8 = load i32, ptr %7, align 4, !tbaa !46
  %9 = mul nsw i32 %8, %2
  %10 = sdiv i32 %9, %3
  %11 = add nsw i32 %2, 1
  %12 = mul nsw i32 %8, %11
  %13 = sdiv i32 %12, %3
  %14 = icmp slt i32 %10, %13
  br i1 %14, label %.lr.ph63, label %._crit_edge64

.lr.ph63:                                         ; preds = %4
  %15 = getelementptr inbounds nuw i8, ptr %0, i64 56
  %16 = load ptr, ptr %15, align 8, !tbaa !31
  %17 = load ptr, ptr %16, align 8, !tbaa !32
  %18 = getelementptr inbounds nuw i8, ptr %0, i64 72
  %19 = load ptr, ptr %18, align 8, !tbaa !4
  %20 = load ptr, ptr %6, align 8, !tbaa !58
  %21 = getelementptr inbounds nuw i8, ptr %6, i64 8
  %22 = load ptr, ptr %21, align 8, !tbaa !58
  %23 = getelementptr inbounds nuw i8, ptr %6, i64 16
  %24 = load ptr, ptr %23, align 8, !tbaa !58
  %25 = load ptr, ptr %19, align 8, !tbaa !59
  %26 = getelementptr inbounds nuw i8, ptr %17, i64 40
  %27 = load i32, ptr %26, align 8, !tbaa !34
  %28 = getelementptr inbounds nuw i8, ptr %17, i64 44
  %29 = load i32, ptr %28, align 4, !tbaa !35
  %30 = mul nsw i32 %29, %27
  %31 = sext i32 %30 to i64
  %32 = shl nsw i32 %27, 1
  %33 = mul nsw i32 %32, %29
  %34 = sext i32 %33 to i64
  %35 = icmp sgt i32 %27, 0
  %36 = getelementptr inbounds nuw i8, ptr %1, i64 20
  %37 = getelementptr inbounds nuw i8, ptr %1, i64 24
  br i1 %35, label %.lr.ph.us.preheader, label %._crit_edge64

.lr.ph.us.preheader:                              ; preds = %.lr.ph63
  %38 = getelementptr inbounds nuw i8, ptr %6, i64 72
  %39 = load i32, ptr %38, align 8, !tbaa !53
  %40 = getelementptr inbounds nuw i8, ptr %6, i64 68
  %41 = load i32, ptr %40, align 4, !tbaa !53
  %42 = getelementptr inbounds nuw i8, ptr %6, i64 64
  %43 = load i32, ptr %42, align 8, !tbaa !53
  %44 = sext i32 %10 to i64
  %45 = sext i32 %43 to i64
  %46 = sext i32 %41 to i64
  %47 = sext i32 %39 to i64
  %48 = zext nneg i32 %27 to i64
  %wide.trip.count70 = sext i32 %13 to i64
  %wide.trip.count = zext nneg i32 %27 to i64
  br label %.lr.ph.us

.lr.ph.us:                                        ; preds = %.lr.ph.us.preheader, %._crit_edge.us
  %indvars.iv67 = phi i64 [ %44, %.lr.ph.us.preheader ], [ %indvars.iv.next68, %._crit_edge.us ]
  %49 = mul nsw i64 %indvars.iv67, %45
  %50 = getelementptr inbounds i8, ptr %20, i64 %49
  %51 = mul nsw i64 %indvars.iv67, %46
  %52 = getelementptr inbounds i8, ptr %22, i64 %51
  %53 = mul nsw i64 %indvars.iv67, %47
  %54 = getelementptr inbounds i8, ptr %24, i64 %53
  %55 = mul nsw i64 %indvars.iv67, %48
  %56 = getelementptr inbounds float, ptr %25, i64 %55
  %57 = getelementptr inbounds float, ptr %56, i64 %31
  %58 = getelementptr inbounds float, ptr %56, i64 %34
  br label %59

59:                                               ; preds = %.lr.ph.us, %59
  %indvars.iv = phi i64 [ 0, %.lr.ph.us ], [ %indvars.iv.next, %59 ]
  %.04959.us = phi ptr [ %58, %.lr.ph.us ], [ %64, %59 ]
  %.05058.us = phi ptr [ %57, %.lr.ph.us ], [ %62, %59 ]
  %.05157.us = phi ptr [ %56, %.lr.ph.us ], [ %60, %59 ]
  %60 = getelementptr inbounds nuw i8, ptr %.05157.us, i64 4
  %61 = load float, ptr %.05157.us, align 4, !tbaa !52
  %62 = getelementptr inbounds nuw i8, ptr %.05058.us, i64 4
  %63 = load float, ptr %.05058.us, align 4, !tbaa !52
  %64 = getelementptr inbounds nuw i8, ptr %.04959.us, i64 4
  %65 = load float, ptr %.04959.us, align 4, !tbaa !52
  %66 = load float, ptr %36, align 4, !tbaa !56
  %67 = fsub nsz float %63, %66
  %68 = load float, ptr %37, align 8, !tbaa !57
  %69 = fsub nsz float %65, %68
  %70 = fmul nsz float %67, 0x3FDA20C4A0000000
  %71 = tail call nsz float @llvm.fmuladd.f32(float %61, float 0x3FE279A6C0000000, float %70)
  %72 = tail call nsz float @llvm.fmuladd.f32(float %69, float 0x3FE69FBE80000000, float %71)
  %73 = tail call nsz float @llvm.fmuladd.f32(float %69, float 0xBFE69FBE80000000, float %71)
  %74 = fmul nsz float %67, 0xBFEA20C4A0000000
  %75 = tail call nsz float @llvm.fmuladd.f32(float %61, float 0x3FE279A6C0000000, float %74)
  %76 = tail call nsz float @llvm.fmuladd.f32(float %69, float 0.000000e+00, float %75)
  %77 = tail call nsz float @llvm.exp.f32(float %72)
  %78 = tail call nsz float @llvm.exp.f32(float %73)
  %79 = tail call nsz float @llvm.exp.f32(float %76)
  %80 = fmul nsz float %78, 0xC00CB2CA60000000
  %81 = tail call nsz float @llvm.fmuladd.f32(float %77, float 0x4011DF2120000000, float %80)
  %82 = tail call nsz float @llvm.fmuladd.f32(float %79, float 0x3FBE8A71E0000000, float %81)
  %83 = fmul nsz float %78, 0x40030C1540000000
  %84 = tail call nsz float @llvm.fmuladd.f32(float %77, float 0xBFF37F62C0000000, float %83)
  %85 = tail call nsz float @llvm.fmuladd.f32(float %79, float 0xBFC4C98600000000, float %84)
  %86 = fmul nsz float %78, 0xBFCF381D80000000
  %87 = tail call nsz float @llvm.fmuladd.f32(float %77, float 0x3FA9724740000000, float %86)
  %88 = tail call nsz float @llvm.fmuladd.f32(float %79, float 0x3FF345A1C0000000, float %87)
  %89 = getelementptr inbounds nuw float, ptr %54, i64 %indvars.iv
  store float %82, ptr %89, align 4, !tbaa !52
  %90 = getelementptr inbounds nuw float, ptr %50, i64 %indvars.iv
  store float %85, ptr %90, align 4, !tbaa !52
  %91 = getelementptr inbounds nuw float, ptr %52, i64 %indvars.iv
  store float %88, ptr %91, align 4, !tbaa !52
  %indvars.iv.next = add nuw nsw i64 %indvars.iv, 1
  %exitcond.not = icmp eq i64 %indvars.iv.next, %wide.trip.count
  br i1 %exitcond.not, label %._crit_edge.us, label %59, !llvm.loop !62

._crit_edge.us:                                   ; preds = %59
  %indvars.iv.next68 = add nsw i64 %indvars.iv67, 1
  %exitcond71.not = icmp eq i64 %indvars.iv.next68, %wide.trip.count70
  br i1 %exitcond71.not, label %._crit_edge64, label %.lr.ph.us, !llvm.loop !63

._crit_edge64:                                    ; preds = %._crit_edge.us, %.lr.ph63, %4
  ret i32 0
}